target datalayout = "e-m:e-p270:32:32-p271:32:32-p272:64:64-i64:64-i128:128-f80:128-n8:16:32:64-S128"
target triple = "x86_64-pc-linux-gnu"

%"struct.Imf_3_4::Rgba" = type { %"class.Imath_3_2::half", %"class.Imath_3_2::half", %"class.Imath_3_2::half", %"class.Imath_3_2::half" }
%"class.Imath_3_2::half" = type { i16 }
%"struct.Imf_3_4::PreviewRgba" = type { i8, i8, i8, i8 }
%"class.Imf_3_4::Array2D" = type { i64, i64, ptr }
%"class.Imf_3_4::Array2D.0" = type { i64, i64, ptr }
%"class.Imf_3_4::Header" = type <{ %"class.std::map", i8, [7 x i8] }>
%"class.std::map" = type { %"class.std::_Rb_tree" }
%"class.std::_Rb_tree" = type { %"struct.std::_Rb_tree<Imf_3_4::Name, std::pair<const Imf_3_4::Name, Imf_3_4::Attribute *>, std::_Select1st<std::pair<const Imf_3_4::Name, Imf_3_4::Attribute *>>, std::less<Imf_3_4::Name>>::_Rb_tree_impl" }
%"struct.std::_Rb_tree<Imf_3_4::Name, std::pair<const Imf_3_4::Name, Imf_3_4::Attribute *>, std::_Select1st<std::pair<const Imf_3_4::Name, Imf_3_4::Attribute *>>, std::less<Imf_3_4::Name>>::_Rb_tree_impl" = type { [8 x i8], %"struct.std::_Rb_tree_header" }
%"struct.std::_Rb_tree_header" = type { %"struct.std::_Rb_tree_node_base", i64 }
%"struct.std::_Rb_tree_node_base" = type { i32, ptr, ptr, ptr }
%"class.Imath_3_2::Vec2" = type { float, float }
%"class.Imf_3_4::PreviewImage" = type { i32, i32, ptr }
%"class.Imf_3_4::RgbaOutputFile" = type { ptr, ptr, ptr }

; Function Attrs: inlinehint mustprogress nounwind uwtable
define linkonce_odr dso_local void @_ZN7Imf_3_47Array2DINS_11PreviewRgbaEED2Ev(ptr noundef nonnull align 8 dereferenceable(24) %0) unnamed_addr #5 comdat align 2 {
  %2 = alloca ptr, align 8
  store ptr %0, ptr %2, align 8, !tbaa !15
  %3 = load ptr, ptr %2, align 8
  %4 = getelementptr inbounds nuw %"class.Imf_3_4::Array2D", ptr %3, i32 0, i32 2
  %5 = load ptr, ptr %4, align 8, !tbaa !33
  %6 = icmp eq ptr %5, null
  br i1 %6, label %8, label %7

7:                                                ; preds = %1
  call void @_ZdaPv(ptr noundef %5) #15
  br label %8

8:                                                ; preds = %7, %1
  ret void
}

; Function Attrs: inlinehint mustprogress nounwind uwtable
define linkonce_odr dso_local noundef ptr @_ZNK7Imf_3_47Array2DINS_4RgbaEEixEl(ptr noundef nonnull align 8 dereferenceable(24) %0, i64 noundef %1) #5 comdat align 2 {
  %3 = alloca ptr, align 8
  %4 = alloca i64, align 8
  store ptr %0, ptr %3, align 8, !tbaa !13
  store i64 %1, ptr %4, align 8, !tbaa !31
  %5 = load ptr, ptr %3, align 8
  %6 = getelementptr inbounds nuw %"class.Imf_3_4::Array2D.0", ptr %5, i32 0, i32 2
  %7 = load ptr, ptr %6, align 8, !tbaa !37
  %8 = load i64, ptr %4, align 8, !tbaa !31
  %9 = getelementptr inbounds nuw %"class.Imf_3_4::Array2D.0", ptr %5, i32 0, i32 1
  %10 = load i64, ptr %9, align 8, !tbaa !39
  %11 = mul nsw i64 %8, %10
  %12 = getelementptr inbounds %"struct.Imf_3_4::Rgba", ptr %7, i64 %11
  ret ptr %12
}

; Function Attrs: inlinehint mustprogress nounwind uwtable
define linkonce_odr dso_local noundef ptr @_ZN7Imf_3_47Array2DINS_11PreviewRgbaEEixEl(ptr noundef nonnull align 8 dereferenceable(24) %0, i64 noundef %1) #5 comdat align 2 {
  %3 = alloca ptr, align 8
  %4 = alloca i64, align 8
  store ptr %0, ptr %3, align 8, !tbaa !15
  store i64 %1, ptr %4, align 8, !tbaa !31
  %5 = load ptr, ptr %3, align 8
  %6 = getelementptr inbounds nuw %"class.Imf_3_4::Array2D", ptr %5, i32 0, i32 2
  %7 = load ptr, ptr %6, align 8, !tbaa !33
  %8 = load i64, ptr %4, align 8, !tbaa !31
  %9 = getelementptr inbounds nuw %"class.Imf_3_4::Array2D", ptr %5, i32 0, i32 1
  %10 = load i64, ptr %9, align 8, !tbaa !36
  %11 = mul nsw i64 %8, %10
  %12 = getelementptr inbounds %"struct.Imf_3_4::PreviewRgba", ptr %7, i64 %11
  ret ptr %12
}

; Function Attrs: inlinehint mustprogress nounwind uwtable
define linkonce_odr dso_local void @_ZN9Imath_3_24Vec2IfEC2Eff(ptr noundef nonnull align 4 dereferenceable(8) %0, float noundef %1, float noundef %2) unnamed_addr #5 comdat align 2 {
  %4 = alloca ptr, align 8
  %5 = alloca float, align 4
  %6 = alloca float, align 4
  store ptr %0, ptr %4, align 8, !tbaa !47
  store float %1, ptr %5, align 4, !tbaa !4
  store float %2, ptr %6, align 4, !tbaa !4
  %7 = load ptr, ptr %4, align 8
  %8 = getelementptr inbounds nuw %"class.Imath_3_2::Vec2", ptr %7, i32 0, i32 0
  %9 = load float, ptr %5, align 4, !tbaa !4
  store float %9, ptr %8, align 4, !tbaa !49
  %10 = getelementptr inbounds nuw %"class.Imath_3_2::Vec2", ptr %7, i32 0, i32 1
  %11 = load float, ptr %6, align 4, !tbaa !4
  store float %11, ptr %10, align 4, !tbaa !51
  ret void
}

; Function Attrs: inlinehint mustprogress nounwind uwtable
define linkonce_odr dso_local void @_ZN7Imf_3_47Array2DINS_11PreviewRgbaEEC2Ev(ptr noundef nonnull align 8 dereferenceable(24) %0) unnamed_addr #5 comdat align 2 {
  %2 = alloca ptr, align 8
  store ptr %0, ptr %2, align 8, !tbaa !15
  %3 = load ptr, ptr %2, align 8
  %4 = getelementptr inbounds nuw %"class.Imf_3_4::Array2D", ptr %3, i32 0, i32 0
  store i64 0, ptr %4, align 8, !tbaa !35
  %5 = getelementptr inbounds nuw %"class.Imf_3_4::Array2D", ptr %3, i32 0, i32 1
  store i64 0, ptr %5, align 8, !tbaa !36
  %6 = getelementptr inbounds nuw %"class.Imf_3_4::Array2D", ptr %3, i32 0, i32 2
  store ptr null, ptr %6, align 8, !tbaa !33
  ret void
}

; Function Attrs: mustprogress uwtable
define dso_local void @_Z21writeRgbaWithPreview1PKcRKN7Imf_3_47Array2DINS1_4RgbaEEEii(ptr noundef %0, ptr noundef nonnull align 8 dereferenceable(24) %1, i32 noundef %2, i32 noundef %3) #4 personality ptr @__gxx_personality_v0 {
  %5 = alloca ptr, align 8
  %6 = alloca ptr, align 8
  %7 = alloca i32, align 4
  %8 = alloca i32, align 4
  %9 = alloca %"class.Imf_3_4::Array2D", align 8
  %10 = alloca i32, align 4
  %11 = alloca i32, align 4
  %12 = alloca ptr, align 8
  %13 = alloca i32, align 4
  %14 = alloca %"class.Imf_3_4::Header", align 8
  %15 = alloca %"class.Imath_3_2::Vec2", align 4
  %16 = alloca %"class.Imf_3_4::PreviewImage", align 8
  %17 = alloca %"class.Imf_3_4::RgbaOutputFile", align 8
  store ptr %0, ptr %5, align 8, !tbaa !45
  store ptr %1, ptr %6, align 8, !tbaa !13
  store i32 %2, ptr %7, align 4, !tbaa !8
  store i32 %3, ptr %8, align 4, !tbaa !8
  call void @llvm.lifetime.start.p0(i64 24, ptr %9) #3
  call void @_ZN7Imf_3_47Array2DINS_11PreviewRgbaEEC2Ev(ptr noundef nonnull align 8 dereferenceable(24) %9)
  call void @llvm.lifetime.start.p0(i64 4, ptr %10) #3
  call void @llvm.lifetime.start.p0(i64 4, ptr %11) #3
  %18 = load ptr, ptr %6, align 8, !tbaa !13
  %19 = load i32, ptr %7, align 4, !tbaa !8
  %20 = load i32, ptr %8, align 4, !tbaa !8
  invoke void @_Z16makePreviewImageRKN7Imf_3_47Array2DINS_4RgbaEEEiiRNS0_INS_11PreviewRgbaEEERiS8_(ptr noundef nonnull align 8 dereferenceable(24) %18, i32 noundef %19, i32 noundef %20, ptr noundef nonnull align 8 dereferenceable(24) %9, ptr noundef nonnull align 4 dereferenceable(4) %10, ptr noundef nonnull align 4 dereferenceable(4) %11)
          to label %21 unwind label %45

21:                                               ; preds = %4
  call void @llvm.lifetime.start.p0(i64 56, ptr %14) #3
  %22 = load i32, ptr %7, align 4, !tbaa !8
  %23 = load i32, ptr %8, align 4, !tbaa !8
  call void @llvm.lifetime.start.p0(i64 8, ptr %15) #3
  call void @_ZN9Imath_3_24Vec2IfEC2Eff(ptr noundef nonnull align 4 dereferenceable(8) %15, float noundef 0.000000e+00, float noundef 0.000000e+00) #3
  invoke void @_ZN7Imf_3_46HeaderC1EiifRKN9Imath_3_24Vec2IfEEfNS_9LineOrderENS_11CompressionE(ptr noundef nonnull align 8 dereferenceable(49) %14, i32 noundef %22, i32 noundef %23, float noundef 1.000000e+00, ptr noundef nonnull align 4 dereferenceable(8) %15, float noundef 1.000000e+00, i32 noundef 0, i32 noundef 3)
          to label %24 unwind label %49

24:                                               ; preds = %21
  call void @llvm.lifetime.end.p0(i64 8, ptr %15) #3
  call void @llvm.lifetime.start.p0(i64 16, ptr %16) #3
  %25 = load i32, ptr %10, align 4, !tbaa !8
  %26 = load i32, ptr %11, align 4, !tbaa !8
  %27 = invoke noundef ptr @_ZN7Imf_3_47Array2DINS_11PreviewRgbaEEixEl(ptr noundef nonnull align 8 dereferenceable(24) %9, i64 noundef 0)
          to label %28 unwind label %53

28:                                               ; preds = %24
  %29 = getelementptr inbounds %"struct.Imf_3_4::PreviewRgba", ptr %27, i64 0
  invoke void @_ZN7Imf_3_412PreviewImageC1EjjPKNS_11PreviewRgbaE(ptr noundef nonnull align 8 dereferenceable(16) %16, i32 noundef %25, i32 noundef %26, ptr noundef %29)
          to label %30 unwind label %53

30:                                               ; preds = %28
  invoke void @_ZN7Imf_3_46Header15setPreviewImageERKNS_12PreviewImageE(ptr noundef nonnull align 8 dereferenceable(49) %14, ptr noundef nonnull align 8 dereferenceable(16) %16)
          to label %31 unwind label %57

31:                                               ; preds = %30
  call void @_ZN7Imf_3_412PreviewImageD1Ev(ptr noundef nonnull align 8 dereferenceable(16) %16) #3
  call void @llvm.lifetime.end.p0(i64 16, ptr %16) #3
  call void @llvm.lifetime.start.p0(i64 24, ptr %17) #3
  %32 = load ptr, ptr %5, align 8, !tbaa !45
  %33 = invoke noundef i32 @_ZN7Imf_3_417globalThreadCountEv()
          to label %34 unwind label %62

34:                                               ; preds = %31
  invoke void @_ZN7Imf_3_414RgbaOutputFileC1EPKcRKNS_6HeaderENS_12RgbaChannelsEi(ptr noundef nonnull align 8 dereferenceable(24) %17, ptr noundef %32, ptr noundef nonnull align 8 dereferenceable(49) %14, i32 noundef 15, i32 noundef %33)
          to label %35 unwind label %62

35:                                               ; preds = %34
  %36 = load ptr, ptr %6, align 8, !tbaa !13
  %37 = invoke noundef ptr @_ZNK7Imf_3_47Array2DINS_4RgbaEEixEl(ptr noundef nonnull align 8 dereferenceable(24) %36, i64 noundef 0)
          to label %38 unwind label %66

38:                                               ; preds = %35
  %39 = getelementptr inbounds %"struct.Imf_3_4::Rgba", ptr %37, i64 0
  %40 = load i32, ptr %7, align 4, !tbaa !8
  %41 = sext i32 %40 to i64
  invoke void @_ZN7Imf_3_414RgbaOutputFile14setFrameBufferEPKNS_4RgbaEmm(ptr noundef nonnull align 8 dereferenceable(24) %17, ptr noundef %39, i64 noundef 1, i64 noundef %41)
          to label %42 unwind label %66

42:                                               ; preds = %38
  %43 = load i32, ptr %8, align 4, !tbaa !8
  invoke void @_ZN7Imf_3_414RgbaOutputFile11writePixelsEi(ptr noundef nonnull align 8 dereferenceable(24) %17, i32 noundef %43)
          to label %44 unwind label %66

44:                                               ; preds = %42
  call void @_ZN7Imf_3_414RgbaOutputFileD1Ev(ptr noundef nonnull align 8 dereferenceable(24) %17) #3
  call void @llvm.lifetime.end.p0(i64 24, ptr %17) #3
  call void @_ZN7Imf_3_46HeaderD1Ev(ptr noundef nonnull align 8 dereferenceable(49) %14) #3
  call void @llvm.lifetime.end.p0(i64 56, ptr %14) #3
  call void @llvm.lifetime.end.p0(i64 4, ptr %11) #3
  call void @llvm.lifetime.end.p0(i64 4, ptr %10) #3
  call void @_ZN7Imf_3_47Array2DINS_11PreviewRgbaEED2Ev(ptr noundef nonnull align 8 dereferenceable(24) %9) #3
  call void @llvm.lifetime.end.p0(i64 24, ptr %9) #3
  ret void

45:                                               ; preds = %4
  %46 = landingpad { ptr, i32 }
          cleanup
  %47 = extractvalue { ptr, i32 } %46, 0
  store ptr %47, ptr %12, align 8
  %48 = extractvalue { ptr, i32 } %46, 1
  store i32 %48, ptr %13, align 4
  br label %73

49:                                               ; preds = %21
  %50 = landingpad { ptr, i32 }
          cleanup
  %51 = extractvalue { ptr, i32 } %50, 0
  store ptr %51, ptr %12, align 8
  %52 = extractvalue { ptr, i32 } %50, 1
  store i32 %52, ptr %13, align 4
  call void @llvm.lifetime.end.p0(i64 8, ptr %15) #3
  br label %72

53:                                               ; preds = %28, %24
  %54 = landingpad { ptr, i32 }
          cleanup
  %55 = extractvalue { ptr, i32 } %54, 0
  store ptr %55, ptr %12, align 8
  %56 = extractvalue { ptr, i32 } %54, 1
  store i32 %56, ptr %13, align 4
  br label %61

57:                                               ; preds = %30
  %58 = landingpad { ptr, i32 }
          cleanup
  %59 = extractvalue { ptr, i32 } %58, 0
  store ptr %59, ptr %12, align 8
  %60 = extractvalue { ptr, i32 } %58, 1
  store i32 %60, ptr %13, align 4
  call void @_ZN7Imf_3_412PreviewImageD1Ev(ptr noundef nonnull align 8 dereferenceable(16) %16) #3
  br label %61

61:                                               ; preds = %57, %53
  call void @llvm.lifetime.end.p0(i64 16, ptr %16) #3
  br label %71

62:                                               ; preds = %34, %31
  %63 = landingpad { ptr, i32 }
          cleanup
  %64 = extractvalue { ptr, i32 } %63, 0
  store ptr %64, ptr %12, align 8
  %65 = extractvalue { ptr, i32 } %63, 1
  store i32 %65, ptr %13, align 4
  br label %70

66:                                               ; preds = %42, %38, %35
  %67 = landingpad { ptr, i32 }
          cleanup
  %68 = extractvalue { ptr, i32 } %67, 0
  store ptr %68, ptr %12, align 8
  %69 = extractvalue { ptr, i32 } %67, 1
  store i32 %69, ptr %13, align 4
  call void @_ZN7Imf_3_414RgbaOutputFileD1Ev(ptr noundef nonnull align 8 dereferenceable(24) %17) #3
  br label %70

70:                                               ; preds = %66, %62
  call void @llvm.lifetime.end.p0(i64 24, ptr %17) #3
  br label %71

71:                                               ; preds = %70, %61
  call void @_ZN7Imf_3_46HeaderD1Ev(ptr noundef nonnull align 8 dereferenceable(49) %14) #3
  br label %72

72:                                               ; preds = %71, %49
  call void @llvm.lifetime.end.p0(i64 56, ptr %14) #3
  br label %73

73:                                               ; preds = %72, %45
  call void @llvm.lifetime.end.p0(i64 4, ptr %11) #3
  call void @llvm.lifetime.end.p0(i64 4, ptr %10) #3
  call void @_ZN7Imf_3_47Array2DINS_11PreviewRgbaEED2Ev(ptr noundef nonnull align 8 dereferenceable(24) %9) #3
  call void @llvm.lifetime.end.p0(i64 24, ptr %9) #3
  br label %74

74:                                               ; preds = %73
  %75 = load ptr, ptr %12, align 8
  %76 = load i32, ptr %13, align 4
  %77 = insertvalue { ptr, i32 } poison, ptr %75, 0
  %78 = insertvalue { ptr, i32 } %77, i32 %76, 1
  resume { ptr, i32 } %78
}