; Function Attrs: mustprogress uwtable
define dso_local void @_Z21writeRgbaWithPreview1PKcRKN7Imf_3_47Array2DINS1_4RgbaEEEii(ptr noundef %0, ptr noundef nonnull readonly align 8 captures(none) dereferenceable(24) %1, i32 noundef %2, i32 noundef %3) local_unnamed_addr #5 personality ptr @__gxx_personality_v0 {
  %5 = alloca %"class.Imf_3_4::Array2D", align 8
  %6 = alloca i32, align 4
  %7 = alloca i32, align 4
  %8 = alloca %"class.Imf_3_4::Header", align 8
  %9 = alloca %"class.Imath_3_2::Vec2", align 4
  %10 = alloca %"class.Imf_3_4::PreviewImage", align 8
  %11 = alloca %"class.Imf_3_4::RgbaOutputFile", align 8
  call void @llvm.lifetime.start.p0(i64 24, ptr nonnull %5) #12
  call void @llvm.memset.p0.i64(ptr noundef nonnull align 8 dereferenceable(24) %5, i8 0, i64 24, i1 false)
  call void @llvm.lifetime.start.p0(i64 4, ptr nonnull %6) #12
  call void @llvm.lifetime.start.p0(i64 4, ptr nonnull %7) #12
  invoke void @_Z16makePreviewImageRKN7Imf_3_47Array2DINS_4RgbaEEEiiRNS0_INS_11PreviewRgbaEEERiS8_(ptr noundef nonnull align 8 dereferenceable(24) %1, i32 noundef %2, i32 noundef %3, ptr noundef nonnull align 8 dereferenceable(24) %5, ptr noundef nonnull align 4 dereferenceable(4) %6, ptr noundef nonnull align 4 dereferenceable(4) %7)
          to label %12 unwind label %31

12:                                               ; preds = %4
  call void @llvm.lifetime.start.p0(i64 56, ptr nonnull %8) #12
  call void @llvm.lifetime.start.p0(i64 8, ptr nonnull %9) #12
  store float 0.000000e+00, ptr %9, align 4, !tbaa !28
  %13 = getelementptr inbounds nuw i8, ptr %9, i64 4
  store float 0.000000e+00, ptr %13, align 4, !tbaa !31
  invoke void @_ZN7Imf_3_46HeaderC1EiifRKN9Imath_3_24Vec2IfEEfNS_9LineOrderENS_11CompressionE(ptr noundef nonnull align 8 dereferenceable(49) %8, i32 noundef %2, i32 noundef %3, float noundef 1.000000e+00, ptr noundef nonnull align 4 dereferenceable(8) %9, float noundef 1.000000e+00, i32 noundef 0, i32 noundef 3)
          to label %14 unwind label %33

14:                                               ; preds = %12
  call void @llvm.lifetime.end.p0(i64 8, ptr nonnull %9) #12
  call void @llvm.lifetime.start.p0(i64 16, ptr nonnull %10) #12
  %15 = load i32, ptr %6, align 4, !tbaa !4
  %16 = load i32, ptr %7, align 4, !tbaa !4
  %17 = getelementptr inbounds nuw i8, ptr %5, i64 16
  %18 = load ptr, ptr %17, align 8, !tbaa !13
  invoke void @_ZN7Imf_3_412PreviewImageC1EjjPKNS_11PreviewRgbaE(ptr noundef nonnull align 8 dereferenceable(16) %10, i32 noundef %15, i32 noundef %16, ptr noundef %18)
          to label %19 unwind label %35

19:                                               ; preds = %14
  invoke void @_ZN7Imf_3_46Header15setPreviewImageERKNS_12PreviewImageE(ptr noundef nonnull align 8 dereferenceable(49) %8, ptr noundef nonnull align 8 dereferenceable(16) %10)
          to label %20 unwind label %37

20:                                               ; preds = %19
  call void @_ZN7Imf_3_412PreviewImageD1Ev(ptr noundef nonnull align 8 dereferenceable(16) %10) #12
  call void @llvm.lifetime.end.p0(i64 16, ptr nonnull %10) #12
  call void @llvm.lifetime.start.p0(i64 24, ptr nonnull %11) #12
  %21 = invoke noundef i32 @_ZN7Imf_3_417globalThreadCountEv()
          to label %22 unwind label %40

22:                                               ; preds = %20
  invoke void @_ZN7Imf_3_414RgbaOutputFileC1EPKcRKNS_6HeaderENS_12RgbaChannelsEi(ptr noundef nonnull align 8 dereferenceable(24) %11, ptr noundef %0, ptr noundef nonnull align 8 dereferenceable(49) %8, i32 noundef 15, i32 noundef %21)
          to label %23 unwind label %40

23:                                               ; preds = %22
  %24 = getelementptr inbounds nuw i8, ptr %1, i64 16
  %25 = load ptr, ptr %24, align 8, !tbaa !32
  %26 = sext i32 %2 to i64
  invoke void @_ZN7Imf_3_414RgbaOutputFile14setFrameBufferEPKNS_4RgbaEmm(ptr noundef nonnull align 8 dereferenceable(24) %11, ptr noundef %25, i64 noundef 1, i64 noundef %26)
          to label %27 unwind label %42

27:                                               ; preds = %23
  invoke void @_ZN7Imf_3_414RgbaOutputFile11writePixelsEi(ptr noundef nonnull align 8 dereferenceable(24) %11, i32 noundef %3)
          to label %28 unwind label %42

28:                                               ; preds = %27
  call void @_ZN7Imf_3_414RgbaOutputFileD1Ev(ptr noundef nonnull align 8 dereferenceable(24) %11) #12
  call void @llvm.lifetime.end.p0(i64 24, ptr nonnull %11) #12
  call void @_ZN7Imf_3_46HeaderD1Ev(ptr noundef nonnull align 8 dereferenceable(49) %8) #12
  call void @llvm.lifetime.end.p0(i64 56, ptr nonnull %8) #12
  call void @llvm.lifetime.end.p0(i64 4, ptr nonnull %7) #12
  call void @llvm.lifetime.end.p0(i64 4, ptr nonnull %6) #12
  %29 = icmp eq ptr %18, null
  br i1 %29, label %_ZN7Imf_3_47Array2DINS_11PreviewRgbaEED2Ev.exit, label %30

30:                                               ; preds = %28
  call void @_ZdaPv(ptr noundef nonnull %18) #14
  br label %_ZN7Imf_3_47Array2DINS_11PreviewRgbaEED2Ev.exit

_ZN7Imf_3_47Array2DINS_11PreviewRgbaEED2Ev.exit:  ; preds = %28, %30
  call void @llvm.lifetime.end.p0(i64 24, ptr nonnull %5) #12
  ret void

31:                                               ; preds = %4
  %32 = landingpad { ptr, i32 }
          cleanup
  br label %47

33:                                               ; preds = %12
  %34 = landingpad { ptr, i32 }
          cleanup
  call void @llvm.lifetime.end.p0(i64 8, ptr nonnull %9) #12
  br label %46

35:                                               ; preds = %14
  %36 = landingpad { ptr, i32 }
          cleanup
  br label %39

37:                                               ; preds = %19
  %38 = landingpad { ptr, i32 }
          cleanup
  call void @_ZN7Imf_3_412PreviewImageD1Ev(ptr noundef nonnull align 8 dereferenceable(16) %10) #12
  br label %39

39:                                               ; preds = %37, %35
  %.pn = phi { ptr, i32 } [ %38, %37 ], [ %36, %35 ]
  call void @llvm.lifetime.end.p0(i64 16, ptr nonnull %10) #12
  br label %45

40:                                               ; preds = %22, %20
  %41 = landingpad { ptr, i32 }
          cleanup
  br label %44

42:                                               ; preds = %27, %23
  %43 = landingpad { ptr, i32 }
          cleanup
  call void @_ZN7Imf_3_414RgbaOutputFileD1Ev(ptr noundef nonnull align 8 dereferenceable(24) %11) #12
  br label %44

44:                                               ; preds = %42, %40
  %.pn16 = phi { ptr, i32 } [ %43, %42 ], [ %41, %40 ]
  call void @llvm.lifetime.end.p0(i64 24, ptr nonnull %11) #12
  br label %45

45:                                               ; preds = %44, %39
  %.pn16.pn = phi { ptr, i32 } [ %.pn16, %44 ], [ %.pn, %39 ]
  call void @_ZN7Imf_3_46HeaderD1Ev(ptr noundef nonnull align 8 dereferenceable(49) %8) #12
  br label %46

46:                                               ; preds = %45, %33
  %.pn16.pn.pn = phi { ptr, i32 } [ %.pn16.pn, %45 ], [ %34, %33 ]
  call void @llvm.lifetime.end.p0(i64 56, ptr nonnull %8) #12
  br label %47

47:                                               ; preds = %46, %31
  %.pn16.pn.pn.pn = phi { ptr, i32 } [ %.pn16.pn.pn, %46 ], [ %32, %31 ]
  call void @llvm.lifetime.end.p0(i64 4, ptr nonnull %7) #12
  call void @llvm.lifetime.end.p0(i64 4, ptr nonnull %6) #12
  %48 = getelementptr inbounds nuw i8, ptr %5, i64 16
  %49 = load ptr, ptr %48, align 8, !tbaa !13
  %50 = icmp eq ptr %49, null
  br i1 %50, label %_ZN7Imf_3_47Array2DINS_11PreviewRgbaEED2Ev.exit21, label %51

51:                                               ; preds = %47
  call void @_ZdaPv(ptr noundef nonnull %49) #14
  br label %_ZN7Imf_3_47Array2DINS_11PreviewRgbaEED2Ev.exit21

_ZN7Imf_3_47Array2DINS_11PreviewRgbaEED2Ev.exit21: ; preds = %47, %51
  call void @llvm.lifetime.end.p0(i64 24, ptr nonnull %5) #12
  resume { ptr, i32 } %.pn16.pn.pn.pn
}